ccopy_reg
_reconstructor
p1
(cargparse
Namespace
p2
c__builtin__
object
p3
NtRp4
(dp5
S'num_epochs'
p6
I50
sS'grad_clip'
p7
F5
sS'rnn_size'
p8
I128
sS'data_dir'
p9
S'data/Preprocessed'
p10
sS'vocab_size'
p11
I9
sS'train_file'
p12
S'/Users/abdelrahman/Projects/lstm-cerevesiae/data/Preprocessed/chr02-input.txt'
p13
sS'learning_rate'
p14
F0.002
sS'save_dir'
p15
S'/Users/abdelrahman/Projects/lstm-cerevesiae/models/GRU/chr-02/128-2'
p16
sS'batch_size'
p17
I50
sS'decay_rate'
p18
F0.96999999999999997
sS'seq_length'
p19
I50
sS'num_layers'
p20
I2
sS'model'
p21
S'lstm'
p22
sS'save_every'
p23
I1000
sb.